target datalayout = "e-m:e-p270:32:32-p271:32:32-p272:64:64-i64:64-i128:128-f80:128-n8:16:32:64-S128"
target triple = "x86_64-pc-linux-gnu"

%struct.rb_data_type_struct = type { ptr, %struct.anon.12, ptr, ptr, i64 }
%struct.anon.12 = type { ptr, ptr, ptr, ptr, [1 x ptr] }
%struct.rof_data = type { i64, i64 }

@rb_cInternalObjectWrapper = internal global i64 0, align 8
@iow_data_type = internal constant %struct.rb_data_type_struct { ptr @.str.95, %struct.anon.12 { ptr @iow_mark, ptr null, ptr @iow_size, ptr null, [1 x ptr] zeroinitializer }, ptr null, ptr null, i64 1 }, align 8

; Function Attrs: nounwind sspstrong uwtable
define internal i64 @iow_newobj(i64 noundef %0) #0 {
  %2 = alloca i64, align 8
  store i64 %0, ptr %2, align 8, !tbaa !6
  %3 = load i64, ptr @rb_cInternalObjectWrapper, align 8, !tbaa !6
  %4 = load i64, ptr %2, align 8, !tbaa !6
  %5 = inttoptr i64 %4 to ptr
  %6 = call i64 @rb_data_typed_object_wrap(i64 noundef %3, ptr noundef %5, ptr noundef @iow_data_type)
  ret i64 %6
}

; Function Attrs: inlinehint nounwind sspstrong willreturn memory(none) uwtable
define internal zeroext i1 @RB_NIL_P(i64 noundef %0) #4 {
  %2 = alloca i64, align 8
  store i64 %0, ptr %2, align 8, !tbaa !6
  %3 = load i64, ptr %2, align 8, !tbaa !6
  %4 = icmp eq i64 %3, 4
  ret i1 %4
}

; Function Attrs: nounwind sspstrong uwtable
define internal void @reachable_object_from_i(i64 noundef %0, ptr noundef %1) #0 {
  %3 = alloca i64, align 8
  %4 = alloca ptr, align 8
  %5 = alloca ptr, align 8
  %6 = alloca i64, align 8
  %7 = alloca i64, align 8
  store i64 %0, ptr %3, align 8, !tbaa !6
  store ptr %1, ptr %4, align 8, !tbaa !46
  call void @llvm.lifetime.start.p0(i64 8, ptr %5) #15
  %8 = load ptr, ptr %4, align 8, !tbaa !46
  store ptr %8, ptr %5, align 8, !tbaa !67
  call void @llvm.lifetime.start.p0(i64 8, ptr %6) #15
  %9 = load i64, ptr %3, align 8, !tbaa !6
  store i64 %9, ptr %6, align 8, !tbaa !6
  call void @llvm.lifetime.start.p0(i64 8, ptr %7) #15
  %10 = load i64, ptr %3, align 8, !tbaa !6
  store i64 %10, ptr %7, align 8, !tbaa !6
  %11 = load i64, ptr %3, align 8, !tbaa !6
  %12 = call i32 @rb_objspace_garbage_object_p(i64 noundef %11)
  %13 = icmp ne i32 %12, 0
  br i1 %13, label %40, label %14

14:                                               ; preds = %2
  %15 = load ptr, ptr %5, align 8, !tbaa !67
  %16 = getelementptr inbounds nuw %struct.rof_data, ptr %15, i32 0, i32 0
  %17 = load i64, ptr %16, align 8, !tbaa !26
  %18 = load i64, ptr %6, align 8, !tbaa !6
  %19 = call i64 @rb_hash_lookup(i64 noundef %17, i64 noundef %18)
  %20 = call zeroext i1 @RB_NIL_P(i64 noundef %19) #18
  br i1 %20, label %21, label %39

21:                                               ; preds = %14
  %22 = load ptr, ptr %5, align 8, !tbaa !67
  %23 = getelementptr inbounds nuw %struct.rof_data, ptr %22, i32 0, i32 0
  %24 = load i64, ptr %23, align 8, !tbaa !26
  %25 = load i64, ptr %6, align 8, !tbaa !6
  %26 = call i64 @rb_hash_aset(i64 noundef %24, i64 noundef %25, i64 noundef 20)
  %27 = load i64, ptr %3, align 8, !tbaa !6
  %28 = call i32 @rb_objspace_internal_object_p(i64 noundef %27)
  %29 = icmp ne i32 %28, 0
  br i1 %29, label %30, label %33

30:                                               ; preds = %21
  %31 = load i64, ptr %3, align 8, !tbaa !6
  %32 = call i64 @iow_newobj(i64 noundef %31)
  store i64 %32, ptr %7, align 8, !tbaa !6
  br label %33

33:                                               ; preds = %30, %21
  %34 = load ptr, ptr %5, align 8, !tbaa !67
  %35 = getelementptr inbounds nuw %struct.rof_data, ptr %34, i32 0, i32 1
  %36 = load i64, ptr %35, align 8, !tbaa !28
  %37 = load i64, ptr %7, align 8, !tbaa !6
  %38 = call i64 @rb_ary_push(i64 noundef %36, i64 noundef %37)
  br label %39

39:                                               ; preds = %33, %14
  br label %40

40:                                               ; preds = %39, %2
  call void @llvm.lifetime.end.p0(i64 8, ptr %7) #15
  call void @llvm.lifetime.end.p0(i64 8, ptr %6) #15
  call void @llvm.lifetime.end.p0(i64 8, ptr %5) #15
  ret void
}