; Function Attrs: nounwind sspstrong uwtable
define internal void @reachable_object_from_i(i64 noundef %0, ptr noundef readonly captures(none) %1) #0 {
  %3 = tail call i32 @rb_objspace_garbage_object_p(i64 noundef %0) #7
  %.not = icmp eq i32 %3, 0
  br i1 %.not, label %4, label %20

4:                                                ; preds = %2
  %5 = load i64, ptr %1, align 8, !tbaa !25
  %6 = tail call i64 @rb_hash_lookup(i64 noundef %5, i64 noundef %0) #7
  %7 = icmp eq i64 %6, 4
  br i1 %7, label %8, label %20

8:                                                ; preds = %4
  %9 = load i64, ptr %1, align 8, !tbaa !25
  %10 = tail call i64 @rb_hash_aset(i64 noundef %9, i64 noundef %0, i64 noundef 20) #7
  %11 = tail call i32 @rb_objspace_internal_object_p(i64 noundef %0) #7
  %.not11 = icmp eq i32 %11, 0
  br i1 %.not11, label %16, label %12

12:                                               ; preds = %8
  %13 = load i64, ptr @rb_cInternalObjectWrapper, align 8, !tbaa !6
  %14 = inttoptr i64 %0 to ptr
  %15 = tail call i64 @rb_data_typed_object_wrap(i64 noundef %13, ptr noundef %14, ptr noundef nonnull @iow_data_type) #7
  br label %16

16:                                               ; preds = %12, %8
  %.0 = phi i64 [ %15, %12 ], [ %0, %8 ]
  %17 = getelementptr inbounds nuw i8, ptr %1, i64 8
  %18 = load i64, ptr %17, align 8, !tbaa !27
  %19 = tail call i64 @rb_ary_push(i64 noundef %18, i64 noundef %.0) #7
  br label %20

20:                                               ; preds = %4, %16, %2
  ret void
}